; Function Attrs: mustprogress uwtable
define noundef zeroext i1 @_ZN3g2o17csparse_extension14writeCs2OctaveEPKcPK12cs_di_sparseb(ptr noundef %0, ptr nocapture noundef readonly %1, i1 noundef zeroext %2) local_unnamed_addr #0 personality ptr @__gxx_personality_v0 {
  %4 = alloca %"class.std::__cxx11::basic_string", align 8
  %5 = alloca %"class.std::allocator", align 1
  %6 = alloca %"class.std::__cxx11::basic_string", align 8
  %7 = alloca %"class.std::allocator", align 1
  %8 = getelementptr inbounds nuw i8, ptr %1, i64 8
  %9 = load i32, ptr %8, align 8
  %10 = getelementptr inbounds nuw i8, ptr %1, i64 4
  %11 = load i32, ptr %10, align 4
  %12 = getelementptr inbounds nuw i8, ptr %1, i64 40
  %13 = load i32, ptr %12, align 8
  %14 = icmp eq i32 %13, -1
  %15 = getelementptr inbounds nuw i8, ptr %1, i64 16
  %16 = load ptr, ptr %15, align 8
  %17 = getelementptr inbounds nuw i8, ptr %1, i64 24
  %18 = load ptr, ptr %17, align 8
  %19 = getelementptr inbounds nuw i8, ptr %1, i64 32
  %20 = load ptr, ptr %19, align 8
  br i1 %14, label %21, label %36

21:                                               ; preds = %3
  call void @_ZNSaIcEC1Ev(ptr noundef nonnull align 1 dereferenceable(1) %5) #8
  %22 = invoke noundef ptr @_ZNSt7__cxx1112basic_stringIcSt11char_traitsIcESaIcEE13_M_local_dataEv(ptr noundef nonnull align 8 dereferenceable(32) %4)
          to label %.noexc unwind label %32

.noexc:                                           ; preds = %21
  invoke void @_ZNSt7__cxx1112basic_stringIcSt11char_traitsIcESaIcEE12_Alloc_hiderC1EPcRKS3_(ptr noundef nonnull align 8 dereferenceable(8) %4, ptr noundef %22, ptr noundef nonnull align 1 dereferenceable(1) %5)
          to label %.noexc34 unwind label %32

.noexc34:                                         ; preds = %.noexc
  %23 = icmp eq ptr %0, null
  br i1 %23, label %24, label %28

24:                                               ; preds = %.noexc34
  invoke void @_ZSt19__throw_logic_errorPKc(ptr noundef nonnull @.str) #9
          to label %25 unwind label %26

25:                                               ; preds = %24
  unreachable

26:                                               ; preds = %28, %24
  %27 = landingpad { ptr, i32 }
          cleanup
  call void @_ZNSaIcED2Ev(ptr noundef nonnull align 1 dereferenceable(1) %4) #8
  br label %.body

28:                                               ; preds = %.noexc34
  %29 = call noundef i64 @strlen(ptr noundef nonnull dereferenceable(1) %0) #8
  %30 = getelementptr inbounds i8, ptr %0, i64 %29
  invoke void @_ZNSt7__cxx1112basic_stringIcSt11char_traitsIcESaIcEE12_M_constructIPKcEEvT_S8_St20forward_iterator_tag(ptr noundef nonnull align 8 dereferenceable(32) %4, ptr noundef nonnull %0, ptr noundef nonnull %30)
          to label %_ZNSt7__cxx1112basic_stringIcSt11char_traitsIcESaIcEEC2IS3_EEPKcRKS3_.exit unwind label %26

_ZNSt7__cxx1112basic_stringIcSt11char_traitsIcESaIcEEC2IS3_EEPKcRKS3_.exit: ; preds = %28
  %31 = invoke noundef zeroext i1 @_ZN3g2o14writeCCSMatrixERKNSt7__cxx1112basic_stringIcSt11char_traitsIcESaIcEEEiiPKiS9_PKdb(ptr noundef nonnull align 8 dereferenceable(32) %4, i32 noundef %11, i32 noundef %9, ptr noundef %16, ptr noundef %18, ptr noundef %20, i1 noundef zeroext %2)
          to label %52 unwind label %34

32:                                               ; preds = %.noexc, %21
  %33 = landingpad { ptr, i32 }
          cleanup
  br label %.body

34:                                               ; preds = %_ZNSt7__cxx1112basic_stringIcSt11char_traitsIcESaIcEEC2IS3_EEPKcRKS3_.exit
  %35 = landingpad { ptr, i32 }
          cleanup
  call void @_ZNSt7__cxx1112basic_stringIcSt11char_traitsIcESaIcEED1Ev(ptr noundef nonnull align 8 dereferenceable(32) %4) #8
  br label %.body

36:                                               ; preds = %3
  call void @_ZNSaIcEC1Ev(ptr noundef nonnull align 1 dereferenceable(1) %7) #8
  %37 = invoke noundef ptr @_ZNSt7__cxx1112basic_stringIcSt11char_traitsIcESaIcEE13_M_local_dataEv(ptr noundef nonnull align 8 dereferenceable(32) %6)
          to label %.noexc35 unwind label %48

.noexc35:                                         ; preds = %36
  invoke void @_ZNSt7__cxx1112basic_stringIcSt11char_traitsIcESaIcEE12_Alloc_hiderC1EPcRKS3_(ptr noundef nonnull align 8 dereferenceable(8) %6, ptr noundef %37, ptr noundef nonnull align 1 dereferenceable(1) %7)
          to label %.noexc36 unwind label %48

.noexc36:                                         ; preds = %.noexc35
  %38 = icmp eq ptr %0, null
  br i1 %38, label %39, label %43

39:                                               ; preds = %.noexc36
  invoke void @_ZSt19__throw_logic_errorPKc(ptr noundef nonnull @.str) #9
          to label %40 unwind label %41

40:                                               ; preds = %39
  unreachable

41:                                               ; preds = %43, %39
  %42 = landingpad { ptr, i32 }
          cleanup
  call void @_ZNSaIcED2Ev(ptr noundef nonnull align 1 dereferenceable(1) %6) #8
  br label %.body

43:                                               ; preds = %.noexc36
  %44 = call noundef i64 @strlen(ptr noundef nonnull dereferenceable(1) %0) #8
  %45 = getelementptr inbounds i8, ptr %0, i64 %44
  invoke void @_ZNSt7__cxx1112basic_stringIcSt11char_traitsIcESaIcEE12_M_constructIPKcEEvT_S8_St20forward_iterator_tag(ptr noundef nonnull align 8 dereferenceable(32) %6, ptr noundef nonnull %0, ptr noundef nonnull %45)
          to label %_ZNSt7__cxx1112basic_stringIcSt11char_traitsIcESaIcEEC2IS3_EEPKcRKS3_.exit39 unwind label %41

_ZNSt7__cxx1112basic_stringIcSt11char_traitsIcESaIcEEC2IS3_EEPKcRKS3_.exit39: ; preds = %43
  %46 = load i32, ptr %12, align 8
  %47 = invoke noundef zeroext i1 @_ZN3g2o18writeTripletMatrixERKNSt7__cxx1112basic_stringIcSt11char_traitsIcESaIcEEEiiiPKiS9_PKdb(ptr noundef nonnull align 8 dereferenceable(32) %6, i32 noundef %46, i32 noundef %11, i32 noundef %9, ptr noundef %18, ptr noundef %16, ptr noundef %20, i1 noundef zeroext %2)
          to label %52 unwind label %50

48:                                               ; preds = %.noexc35, %36
  %49 = landingpad { ptr, i32 }
          cleanup
  br label %.body

50:                                               ; preds = %_ZNSt7__cxx1112basic_stringIcSt11char_traitsIcESaIcEEC2IS3_EEPKcRKS3_.exit39
  %51 = landingpad { ptr, i32 }
          cleanup
  call void @_ZNSt7__cxx1112basic_stringIcSt11char_traitsIcESaIcEED1Ev(ptr noundef nonnull align 8 dereferenceable(32) %6) #8
  br label %.body

52:                                               ; preds = %_ZNSt7__cxx1112basic_stringIcSt11char_traitsIcESaIcEEC2IS3_EEPKcRKS3_.exit39, %_ZNSt7__cxx1112basic_stringIcSt11char_traitsIcESaIcEEC2IS3_EEPKcRKS3_.exit
  %.sink40 = phi ptr [ %4, %_ZNSt7__cxx1112basic_stringIcSt11char_traitsIcESaIcEEC2IS3_EEPKcRKS3_.exit ], [ %6, %_ZNSt7__cxx1112basic_stringIcSt11char_traitsIcESaIcEEC2IS3_EEPKcRKS3_.exit39 ]
  %.sink = phi ptr [ %5, %_ZNSt7__cxx1112basic_stringIcSt11char_traitsIcESaIcEEC2IS3_EEPKcRKS3_.exit ], [ %7, %_ZNSt7__cxx1112basic_stringIcSt11char_traitsIcESaIcEEC2IS3_EEPKcRKS3_.exit39 ]
  %.0 = phi i1 [ %31, %_ZNSt7__cxx1112basic_stringIcSt11char_traitsIcESaIcEEC2IS3_EEPKcRKS3_.exit ], [ %47, %_ZNSt7__cxx1112basic_stringIcSt11char_traitsIcESaIcEEC2IS3_EEPKcRKS3_.exit39 ]
  call void @_ZNSt7__cxx1112basic_stringIcSt11char_traitsIcESaIcEED1Ev(ptr noundef nonnull align 8 dereferenceable(32) %.sink40) #8
  call void @_ZNSaIcED1Ev(ptr noundef nonnull align 1 dereferenceable(1) %.sink) #8
  ret i1 %.0

.body:                                            ; preds = %50, %41, %48, %34, %26, %32
  %.sink41 = phi ptr [ %5, %32 ], [ %5, %26 ], [ %5, %34 ], [ %7, %48 ], [ %7, %41 ], [ %7, %50 ]
  %.pn31.pn = phi { ptr, i32 } [ %33, %32 ], [ %27, %26 ], [ %35, %34 ], [ %49, %48 ], [ %42, %41 ], [ %51, %50 ]
  call void @_ZNSaIcED1Ev(ptr noundef nonnull align 1 dereferenceable(1) %.sink41) #8
  resume { ptr, i32 } %.pn31.pn
}